; Function Attrs: null_pointer_is_valid sspstrong uwtable
define ptr @tvb_bytes_to_str(ptr noundef %0, ptr noundef %1, i32 noundef %2, i32 noundef %3) local_unnamed_addr #0 {
  %5 = icmp sgt i32 %3, 0
  br i1 %5, label %7, label %6

6:                                                ; preds = %4
  tail call void (ptr, ...) @proto_report_dissector_bug(ptr noundef nonnull @.str, ptr noundef nonnull @.str.1, i32 noundef 4730, ptr noundef nonnull @.str.26) #18
  unreachable

7:                                                ; preds = %4
  %8 = tail call fastcc ptr @ensure_contiguous(ptr noundef %1, i32 noundef %2, i32 noundef %3)
  %9 = zext nneg i32 %3 to i64
  %10 = tail call ptr @bytes_to_str_maxlen(ptr noundef %0, ptr noundef %8, i64 noundef %9, i64 noundef 36)
  ret ptr %10
}